; ModuleID = 'source-C-CXX/12/453.c'
source_filename = "source-C-CXX/12/453.c"
target datalayout = "e-m:e-p270:32:32-p271:32:32-p272:64:64-i64:64-f80:128-n8:16:32:64-S128"
target triple = "x86_64-pc-linux-gnu"

@.str = private unnamed_addr constant [3 x i8] c"%d\00", align 1
@.str.1 = private unnamed_addr constant [4 x i8] c"%d \00", align 1

; Function Attrs: nofree nounwind sspstrong uwtable
define dso_local void @main() local_unnamed_addr #0 {
  %1 = alloca [20000 x i32], align 16
  %2 = alloca [100 x i32], align 16
  %3 = alloca i32, align 4
  %4 = bitcast [20000 x i32]* %1 to i8*
  call void @llvm.lifetime.start.p0i8(i64 80000, i8* nonnull %4) #3
  %5 = bitcast [100 x i32]* %2 to i8*
  call void @llvm.lifetime.start.p0i8(i64 400, i8* nonnull %5) #3
  %6 = bitcast i32* %3 to i8*
  call void @llvm.lifetime.start.p0i8(i64 4, i8* nonnull %6) #3
  %7 = call i32 (i8*, ...) @__isoc99_scanf(i8* getelementptr inbounds ([3 x i8], [3 x i8]* @.str, i64 0, i64 0), i32* nonnull %3)
  %8 = load i32, i32* %3, align 4, !tbaa !5
  %9 = icmp sgt i32 %8, 0
  br i1 %9, label %10, label %105

10:                                               ; preds = %0, %10
  %11 = phi i64 [ %14, %10 ], [ 0, %0 ]
  %12 = getelementptr inbounds [20000 x i32], [20000 x i32]* %1, i64 0, i64 %11
  %13 = call i32 (i8*, ...) @__isoc99_scanf(i8* getelementptr inbounds ([3 x i8], [3 x i8]* @.str, i64 0, i64 0), i32* nonnull %12)
  %14 = add nuw nsw i64 %11, 1
  %15 = load i32, i32* %3, align 4, !tbaa !5
  %16 = sext i32 %15 to i64
  %17 = icmp slt i64 %14, %16
  br i1 %17, label %10, label %18, !llvm.loop !9

18:                                               ; preds = %10
  %19 = getelementptr inbounds [20000 x i32], [20000 x i32]* %1, i64 0, i64 0
  %20 = load i32, i32* %19, align 16, !tbaa !5
  %21 = getelementptr inbounds [100 x i32], [100 x i32]* %2, i64 0, i64 0
  store i32 %20, i32* %21, align 16, !tbaa !5
  %22 = icmp sgt i32 %15, 1
  br i1 %22, label %23, label %105

23:                                               ; preds = %18
  %24 = zext i32 %15 to i64
  br label %25

25:                                               ; preds = %23, %94
  %26 = phi i64 [ 1, %23 ], [ %96, %94 ]
  %27 = phi i32 [ 0, %23 ], [ %95, %94 ]
  %28 = icmp slt i32 %27, 0
  br i1 %28, label %88, label %29

29:                                               ; preds = %25
  %30 = getelementptr inbounds [20000 x i32], [20000 x i32]* %1, i64 0, i64 %26
  %31 = load i32, i32* %30, align 4, !tbaa !5
  %32 = add nuw i32 %27, 1
  %33 = zext i32 %32 to i64
  %34 = add nsw i64 %33, -1
  %35 = and i64 %33, 3
  %36 = icmp ult i64 %34, 3
  br i1 %36, label %69, label %37

37:                                               ; preds = %29
  %38 = and i64 %33, 4294967292
  br label %43

39:                                               ; preds = %94
  %40 = icmp sgt i32 %95, 0
  br i1 %40, label %41, label %105

41:                                               ; preds = %39
  %42 = zext i32 %95 to i64
  br label %98

43:                                               ; preds = %43, %37
  %44 = phi i64 [ 0, %37 ], [ %66, %43 ]
  %45 = phi i32 [ 0, %37 ], [ %65, %43 ]
  %46 = phi i64 [ %38, %37 ], [ %67, %43 ]
  %47 = getelementptr inbounds [100 x i32], [100 x i32]* %2, i64 0, i64 %44
  %48 = load i32, i32* %47, align 16, !tbaa !5
  %49 = icmp eq i32 %31, %48
  %50 = or i64 %44, 1
  %51 = getelementptr inbounds [100 x i32], [100 x i32]* %2, i64 0, i64 %50
  %52 = load i32, i32* %51, align 4, !tbaa !5
  %53 = icmp eq i32 %31, %52
  %54 = or i64 %44, 2
  %55 = getelementptr inbounds [100 x i32], [100 x i32]* %2, i64 0, i64 %54
  %56 = load i32, i32* %55, align 8, !tbaa !5
  %57 = icmp eq i32 %31, %56
  %58 = or i64 %44, 3
  %59 = getelementptr inbounds [100 x i32], [100 x i32]* %2, i64 0, i64 %58
  %60 = load i32, i32* %59, align 4, !tbaa !5
  %61 = icmp eq i32 %31, %60
  %62 = select i1 %61, i1 true, i1 %57
  %63 = select i1 %62, i1 true, i1 %53
  %64 = select i1 %63, i1 true, i1 %49
  %65 = select i1 %64, i32 1, i32 %45
  %66 = add nuw nsw i64 %44, 4
  %67 = add i64 %46, -4
  %68 = icmp eq i64 %67, 0
  br i1 %68, label %69, label %43, !llvm.loop !11

69:                                               ; preds = %43, %29
  %70 = phi i32 [ undef, %29 ], [ %65, %43 ]
  %71 = phi i64 [ 0, %29 ], [ %66, %43 ]
  %72 = phi i32 [ 0, %29 ], [ %65, %43 ]
  %73 = icmp eq i64 %35, 0
  br i1 %73, label %85, label %74

74:                                               ; preds = %69, %74
  %75 = phi i64 [ %82, %74 ], [ %71, %69 ]
  %76 = phi i32 [ %81, %74 ], [ %72, %69 ]
  %77 = phi i64 [ %83, %74 ], [ %35, %69 ]
  %78 = getelementptr inbounds [100 x i32], [100 x i32]* %2, i64 0, i64 %75
  %79 = load i32, i32* %78, align 4, !tbaa !5
  %80 = icmp eq i32 %31, %79
  %81 = select i1 %80, i32 1, i32 %76
  %82 = add nuw nsw i64 %75, 1
  %83 = add i64 %77, -1
  %84 = icmp eq i64 %83, 0
  br i1 %84, label %85, label %74, !llvm.loop !12

85:                                               ; preds = %74, %69
  %86 = phi i32 [ %70, %69 ], [ %81, %74 ]
  %87 = icmp eq i32 %86, 0
  br i1 %87, label %88, label %94

88:                                               ; preds = %25, %85
  %89 = add nsw i32 %27, 1
  %90 = getelementptr inbounds [20000 x i32], [20000 x i32]* %1, i64 0, i64 %26
  %91 = load i32, i32* %90, align 4, !tbaa !5
  %92 = sext i32 %89 to i64
  %93 = getelementptr inbounds [100 x i32], [100 x i32]* %2, i64 0, i64 %92
  store i32 %91, i32* %93, align 4, !tbaa !5
  br label %94

94:                                               ; preds = %88, %85
  %95 = phi i32 [ %89, %88 ], [ %27, %85 ]
  %96 = add nuw nsw i64 %26, 1
  %97 = icmp eq i64 %96, %24
  br i1 %97, label %39, label %25, !llvm.loop !14

98:                                               ; preds = %41, %98
  %99 = phi i64 [ 0, %41 ], [ %103, %98 ]
  %100 = getelementptr inbounds [100 x i32], [100 x i32]* %2, i64 0, i64 %99
  %101 = load i32, i32* %100, align 4, !tbaa !5
  %102 = call i32 (i8*, ...) @printf(i8* nonnull dereferenceable(1) getelementptr inbounds ([4 x i8], [4 x i8]* @.str.1, i64 0, i64 0), i32 %101)
  %103 = add nuw nsw i64 %99, 1
  %104 = icmp eq i64 %103, %42
  br i1 %104, label %105, label %98, !llvm.loop !15

105:                                              ; preds = %98, %0, %18, %39
  %106 = phi i32 [ %95, %39 ], [ 0, %18 ], [ 0, %0 ], [ %95, %98 ]
  %107 = sext i32 %106 to i64
  %108 = getelementptr inbounds [100 x i32], [100 x i32]* %2, i64 0, i64 %107
  %109 = load i32, i32* %108, align 4, !tbaa !5
  %110 = call i32 (i8*, ...) @printf(i8* nonnull dereferenceable(1) getelementptr inbounds ([3 x i8], [3 x i8]* @.str, i64 0, i64 0), i32 %109)
  call void @llvm.lifetime.end.p0i8(i64 4, i8* nonnull %6) #3
  call void @llvm.lifetime.end.p0i8(i64 400, i8* nonnull %5) #3
  call void @llvm.lifetime.end.p0i8(i64 80000, i8* nonnull %4) #3
  ret void
}

; Function Attrs: argmemonly mustprogress nofree nosync nounwind willreturn
declare void @llvm.lifetime.start.p0i8(i64 immarg, i8* nocapture) #1

; Function Attrs: nofree nounwind
declare noundef i32 @__isoc99_scanf(i8* nocapture noundef readonly, ...) local_unnamed_addr #2

; Function Attrs: nofree nounwind
declare noundef i32 @printf(i8* nocapture noundef readonly, ...) local_unnamed_addr #2

; Function Attrs: argmemonly mustprogress nofree nosync nounwind willreturn
declare void @llvm.lifetime.end.p0i8(i64 immarg, i8* nocapture) #1


!llvm.module.flags = !{!0, !1, !2, !3}
!llvm.ident = !{!4}

!0 = !{i32 1, !"wchar_size", i32 4}
!1 = !{i32 7, !"PIC Level", i32 2}
!2 = !{i32 7, !"PIE Level", i32 2}
!3 = !{i32 7, !"uwtable", i32 1}
!4 = !{!"clang version 13.0.0"}
!5 = !{!6, !6, i64 0}
!6 = !{!"int", !7, i64 0}
!7 = !{!"omnipotent char", !8, i64 0}
!8 = !{!"Simple C/C++ TBAA"}
!9 = distinct !{!9, !10}
!10 = !{!"llvm.loop.mustprogress"}
!11 = distinct !{!11, !10}
!12 = distinct !{!12, !13}
!13 = !{!"llvm.loop.unroll.disable"}
!14 = distinct !{!14, !10}
!15 = distinct !{!15, !10}
